target datalayout = "e-m:e-p270:32:32-p271:32:32-p272:64:64-i64:64-i128:128-f80:128-n8:16:32:64-S128"
target triple = "x86_64-pc-linux-gnu"

%struct.auth_entry = type { ptr, i64, ptr, i64 }
%struct.stat = type { i64, i64, i64, i32, i32, i32, i32, i64, i64, i64, i64, %struct.timespec, %struct.timespec, %struct.timespec, [3 x i64] }
%struct.timespec = type { i64, i64 }

@entry_cnt = dso_local global i32 0, align 4
@main_auth_data = dso_local global ptr null, align 8
@.str = private unnamed_addr constant [2 x i8] c"r\00", align 1
@main_auth_entries = dso_local global [8 x %struct.auth_entry] zeroinitializer, align 16

; Function Attrs: nounwind uwtable
define dso_local i32 @authfile_load(ptr noundef %0) #0 {
  %2 = alloca i32, align 4
  %3 = alloca ptr, align 8
  %4 = alloca %struct.stat, align 8
  %5 = alloca ptr, align 8
  %6 = alloca [8 x %struct.auth_entry], align 16
  %7 = alloca ptr, align 8
  %8 = alloca i32, align 4
  %9 = alloca ptr, align 8
  %10 = alloca ptr, align 8
  %11 = alloca ptr, align 8
  %12 = alloca i32, align 4
  %13 = alloca i32, align 4
  %14 = alloca i32, align 4
  store ptr %0, ptr %3, align 8, !tbaa !4
  call void @llvm.lifetime.start.p0(i64 144, ptr %4) #7
  call void @llvm.lifetime.start.p0(i64 8, ptr %5) #7
  store ptr null, ptr %5, align 8, !tbaa !4
  call void @llvm.lifetime.start.p0(i64 256, ptr %6) #7
  call void @llvm.lifetime.start.p0(i64 8, ptr %7) #7
  %15 = load ptr, ptr %3, align 8, !tbaa !4
  %16 = call noalias ptr @fopen(ptr noundef %15, ptr noundef @.str)
  store ptr %16, ptr %7, align 8, !tbaa !9
  %17 = load ptr, ptr %7, align 8, !tbaa !9
  %18 = icmp eq ptr %17, null
  br i1 %18, label %19, label %20

19:                                               ; preds = %1
  store i32 3, ptr %2, align 4
  store i32 1, ptr %8, align 4
  br label %185

20:                                               ; preds = %1
  %21 = load ptr, ptr %7, align 8, !tbaa !9
  %22 = call i32 @fileno(ptr noundef %21) #7
  %23 = call i32 @fstat(i32 noundef %22, ptr noundef %4) #7
  %24 = icmp ne i32 %23, 0
  br i1 %24, label %25, label %28

25:                                               ; preds = %20
  %26 = load ptr, ptr %7, align 8, !tbaa !9
  %27 = call i32 @fclose(ptr noundef %26)
  store i32 2, ptr %2, align 4
  store i32 1, ptr %8, align 4
  br label %185

28:                                               ; preds = %20
  br label %29

29:                                               ; preds = %28
  %30 = getelementptr inbounds nuw %struct.stat, ptr %4, i32 0, i32 8
  %31 = load i64, ptr %30, align 8, !tbaa !11
  %32 = add nsw i64 %31, 2
  %33 = call noalias ptr @calloc(i64 noundef 1, i64 noundef %32) #8
  store ptr %33, ptr %5, align 8, !tbaa !4
  call void @llvm.lifetime.start.p0(i64 8, ptr %9) #7
  %34 = load ptr, ptr %5, align 8, !tbaa !4
  store ptr %34, ptr %9, align 8, !tbaa !4
  call void @llvm.lifetime.start.p0(i64 8, ptr %10) #7
  %35 = load ptr, ptr %5, align 8, !tbaa !4
  %36 = getelementptr inbounds nuw %struct.stat, ptr %4, i32 0, i32 8
  %37 = load i64, ptr %36, align 8, !tbaa !11
  %38 = getelementptr inbounds i8, ptr %35, i64 %37
  %39 = getelementptr inbounds i8, ptr %38, i64 1
  store ptr %39, ptr %10, align 8, !tbaa !4
  call void @llvm.lifetime.start.p0(i64 8, ptr %11) #7
  %40 = getelementptr inbounds [8 x %struct.auth_entry], ptr %6, i64 0, i64 0
  store ptr %40, ptr %11, align 8, !tbaa !16
  call void @llvm.lifetime.start.p0(i64 4, ptr %12) #7
  store i32 0, ptr %12, align 4, !tbaa !18
  br label %41

41:                                               ; preds = %172, %29
  %42 = load ptr, ptr %9, align 8, !tbaa !4
  %43 = load ptr, ptr %10, align 8, !tbaa !4
  %44 = load ptr, ptr %9, align 8, !tbaa !4
  %45 = ptrtoint ptr %43 to i64
  %46 = ptrtoint ptr %44 to i64
  %47 = sub i64 %45, %46
  %48 = icmp slt i64 %47, 256
  br i1 %48, label %49, label %55

49:                                               ; preds = %41
  %50 = load ptr, ptr %10, align 8, !tbaa !4
  %51 = load ptr, ptr %9, align 8, !tbaa !4
  %52 = ptrtoint ptr %50 to i64
  %53 = ptrtoint ptr %51 to i64
  %54 = sub i64 %52, %53
  br label %56

55:                                               ; preds = %41
  br label %56

56:                                               ; preds = %55, %49
  %57 = phi i64 [ %54, %49 ], [ 256, %55 ]
  %58 = trunc i64 %57 to i32
  %59 = load ptr, ptr %7, align 8, !tbaa !9
  %60 = call ptr @fgets(ptr noundef %42, i32 noundef %58, ptr noundef %59)
  %61 = icmp ne ptr %60, null
  br i1 %61, label %62, label %173

62:                                               ; preds = %56
  call void @llvm.lifetime.start.p0(i64 4, ptr %13) #7
  call void @llvm.lifetime.start.p0(i64 4, ptr %14) #7
  store i32 0, ptr %14, align 4, !tbaa !18
  store i32 0, ptr %13, align 4, !tbaa !18
  br label %63

63:                                               ; preds = %139, %62
  %64 = load i32, ptr %13, align 4, !tbaa !18
  %65 = icmp slt i32 %64, 256
  br i1 %65, label %66, label %142

66:                                               ; preds = %63
  %67 = load i32, ptr %14, align 4, !tbaa !18
  %68 = icmp ne i32 %67, 0
  br i1 %68, label %103, label %69

69:                                               ; preds = %66
  %70 = load ptr, ptr %9, align 8, !tbaa !4
  %71 = load i32, ptr %13, align 4, !tbaa !18
  %72 = sext i32 %71 to i64
  %73 = getelementptr inbounds i8, ptr %70, i64 %72
  %74 = load i8, ptr %73, align 1, !tbaa !19
  %75 = sext i8 %74 to i32
  %76 = icmp eq i32 %75, 0
  br i1 %76, label %77, label %78

77:                                               ; preds = %69
  br label %142

78:                                               ; preds = %69
  %79 = load ptr, ptr %9, align 8, !tbaa !4
  %80 = load i32, ptr %13, align 4, !tbaa !18
  %81 = sext i32 %80 to i64
  %82 = getelementptr inbounds i8, ptr %79, i64 %81
  %83 = load i8, ptr %82, align 1, !tbaa !19
  %84 = sext i8 %83 to i32
  %85 = icmp eq i32 %84, 58
  br i1 %85, label %86, label %101

86:                                               ; preds = %78
  %87 = load ptr, ptr %9, align 8, !tbaa !4
  %88 = load ptr, ptr %11, align 8, !tbaa !16
  %89 = getelementptr inbounds nuw %struct.auth_entry, ptr %88, i32 0, i32 0
  store ptr %87, ptr %89, align 8, !tbaa !20
  %90 = load i32, ptr %13, align 4, !tbaa !18
  %91 = sext i32 %90 to i64
  %92 = load ptr, ptr %11, align 8, !tbaa !16
  %93 = getelementptr inbounds nuw %struct.auth_entry, ptr %92, i32 0, i32 1
  store i64 %91, ptr %93, align 8, !tbaa !22
  %94 = load ptr, ptr %9, align 8, !tbaa !4
  %95 = load i32, ptr %13, align 4, !tbaa !18
  %96 = add nsw i32 %95, 1
  %97 = sext i32 %96 to i64
  %98 = getelementptr inbounds i8, ptr %94, i64 %97
  %99 = load ptr, ptr %11, align 8, !tbaa !16
  %100 = getelementptr inbounds nuw %struct.auth_entry, ptr %99, i32 0, i32 2
  store ptr %98, ptr %100, align 8, !tbaa !23
  store i32 1, ptr %14, align 4, !tbaa !18
  br label %101

101:                                              ; preds = %86, %78
  br label %102

102:                                              ; preds = %101
  br label %138

103:                                              ; preds = %66
  %104 = load ptr, ptr %9, align 8, !tbaa !4
  %105 = load i32, ptr %13, align 4, !tbaa !18
  %106 = sext i32 %105 to i64
  %107 = getelementptr inbounds i8, ptr %104, i64 %106
  %108 = load i8, ptr %107, align 1, !tbaa !19
  %109 = sext i8 %108 to i32
  %110 = icmp eq i32 %109, 10
  br i1 %110, label %127, label %111

111:                                              ; preds = %103
  %112 = load ptr, ptr %9, align 8, !tbaa !4
  %113 = load i32, ptr %13, align 4, !tbaa !18
  %114 = sext i32 %113 to i64
  %115 = getelementptr inbounds i8, ptr %112, i64 %114
  %116 = load i8, ptr %115, align 1, !tbaa !19
  %117 = sext i8 %116 to i32
  %118 = icmp eq i32 %117, 13
  br i1 %118, label %127, label %119

119:                                              ; preds = %111
  %120 = load ptr, ptr %9, align 8, !tbaa !4
  %121 = load i32, ptr %13, align 4, !tbaa !18
  %122 = sext i32 %121 to i64
  %123 = getelementptr inbounds i8, ptr %120, i64 %122
  %124 = load i8, ptr %123, align 1, !tbaa !19
  %125 = sext i8 %124 to i32
  %126 = icmp eq i32 %125, 0
  br i1 %126, label %127, label %137

127:                                              ; preds = %119, %111, %103
  %128 = load i32, ptr %13, align 4, !tbaa !18
  %129 = sext i32 %128 to i64
  %130 = load ptr, ptr %11, align 8, !tbaa !16
  %131 = getelementptr inbounds nuw %struct.auth_entry, ptr %130, i32 0, i32 1
  %132 = load i64, ptr %131, align 8, !tbaa !22
  %133 = add i64 %132, 1
  %134 = sub i64 %129, %133
  %135 = load ptr, ptr %11, align 8, !tbaa !16
  %136 = getelementptr inbounds nuw %struct.auth_entry, ptr %135, i32 0, i32 3
  store i64 %134, ptr %136, align 8, !tbaa !24
  br label %142

137:                                              ; preds = %119
  br label %138

138:                                              ; preds = %137, %102
  br label %139

139:                                              ; preds = %138
  %140 = load i32, ptr %13, align 4, !tbaa !18
  %141 = add nsw i32 %140, 1
  store i32 %141, ptr %13, align 4, !tbaa !18
  br label %63, !llvm.loop !25

142:                                              ; preds = %127, %77, %63
  %143 = load i32, ptr %14, align 4, !tbaa !18
  %144 = icmp ne i32 %143, 0
  br i1 %144, label %149, label %145

145:                                              ; preds = %142
  %146 = load ptr, ptr %7, align 8, !tbaa !9
  %147 = call i32 @fclose(ptr noundef %146)
  %148 = load ptr, ptr %5, align 8, !tbaa !4
  call void @free(ptr noundef %148) #7
  store i32 4, ptr %2, align 4
  store i32 1, ptr %8, align 4
  br label %170

149:                                              ; preds = %142
  %150 = load i32, ptr %12, align 4, !tbaa !18
  %151 = add nsw i32 %150, 1
  store i32 %151, ptr %12, align 4, !tbaa !18
  %152 = icmp eq i32 %151, 8
  br i1 %152, label %153, label %154

153:                                              ; preds = %149
  store i32 3, ptr %8, align 4
  br label %170

154:                                              ; preds = %149
  %155 = load ptr, ptr %9, align 8, !tbaa !4
  %156 = load i32, ptr %13, align 4, !tbaa !18
  %157 = sext i32 %156 to i64
  %158 = getelementptr inbounds i8, ptr %155, i64 %157
  %159 = load i8, ptr %158, align 1, !tbaa !19
  %160 = sext i8 %159 to i32
  %161 = icmp eq i32 %160, 0
  br i1 %161, label %162, label %163

162:                                              ; preds = %154
  store i32 3, ptr %8, align 4
  br label %170

163:                                              ; preds = %154
  %164 = load i32, ptr %13, align 4, !tbaa !18
  %165 = load ptr, ptr %9, align 8, !tbaa !4
  %166 = sext i32 %164 to i64
  %167 = getelementptr inbounds i8, ptr %165, i64 %166
  store ptr %167, ptr %9, align 8, !tbaa !4
  %168 = load ptr, ptr %11, align 8, !tbaa !16
  %169 = getelementptr inbounds nuw %struct.auth_entry, ptr %168, i32 1
  store ptr %169, ptr %11, align 8, !tbaa !16
  store i32 0, ptr %8, align 4
  br label %170

170:                                              ; preds = %163, %162, %153, %145
  call void @llvm.lifetime.end.p0(i64 4, ptr %14) #7
  call void @llvm.lifetime.end.p0(i64 4, ptr %13) #7
  %171 = load i32, ptr %8, align 4
  switch i32 %171, label %184 [
    i32 0, label %172
    i32 3, label %173
  ]

172:                                              ; preds = %170
  br label %41, !llvm.loop !27

173:                                              ; preds = %170, %56
  %174 = load ptr, ptr @main_auth_data, align 8, !tbaa !4
  %175 = icmp ne ptr %174, null
  br i1 %175, label %176, label %178

176:                                              ; preds = %173
  %177 = load ptr, ptr @main_auth_data, align 8, !tbaa !4
  call void @free(ptr noundef %177) #7
  br label %178

178:                                              ; preds = %176, %173
  %179 = load i32, ptr %12, align 4, !tbaa !18
  store i32 %179, ptr @entry_cnt, align 4, !tbaa !18
  %180 = load ptr, ptr %5, align 8, !tbaa !4
  store ptr %180, ptr @main_auth_data, align 8, !tbaa !4
  %181 = getelementptr inbounds [8 x %struct.auth_entry], ptr %6, i64 0, i64 0
  call void @llvm.memcpy.p0.p0.i64(ptr align 16 @main_auth_entries, ptr align 16 %181, i64 256, i1 false)
  %182 = load ptr, ptr %7, align 8, !tbaa !9
  %183 = call i32 @fclose(ptr noundef %182)
  store i32 0, ptr %2, align 4
  store i32 1, ptr %8, align 4
  br label %184

184:                                              ; preds = %178, %170
  call void @llvm.lifetime.end.p0(i64 4, ptr %12) #7
  call void @llvm.lifetime.end.p0(i64 8, ptr %11) #7
  call void @llvm.lifetime.end.p0(i64 8, ptr %10) #7
  call void @llvm.lifetime.end.p0(i64 8, ptr %9) #7
  br label %185

185:                                              ; preds = %184, %25, %19
  call void @llvm.lifetime.end.p0(i64 8, ptr %7) #7
  call void @llvm.lifetime.end.p0(i64 256, ptr %6) #7
  call void @llvm.lifetime.end.p0(i64 8, ptr %5) #7
  call void @llvm.lifetime.end.p0(i64 144, ptr %4) #7
  %186 = load i32, ptr %2, align 4
  ret i32 %186
}